target datalayout = "e-m:e-p270:32:32-p271:32:32-p272:64:64-i64:64-i128:128-f80:128-n8:16:32:64-S128"
target triple = "x86_64-pc-linux-gnu"

%union.Value = type { ptr }
%struct.Table = type { ptr, i8, i8, i8, i8, i32, ptr, ptr, ptr, ptr }
%struct.TValue = type { %union.Value, i8 }
%union.Node = type { %struct.NodeKey }
%struct.NodeKey = type { %union.Value, i8, i8, i32, %union.Value }
%union.Limbox = type { ptr }

; Function Attrs: inlinehint nounwind uwtable
define internal ptr @mainpositionfromnode(ptr noundef %0, ptr noundef %1) #6 {
  %3 = alloca ptr, align 8
  %4 = alloca ptr, align 8
  %5 = alloca %struct.TValue, align 8
  %6 = alloca ptr, align 8
  %7 = alloca ptr, align 8
  store ptr %0, ptr %3, align 8, !tbaa !9
  store ptr %1, ptr %4, align 8, !tbaa !29
  call void @llvm.lifetime.start.p0(i64 16, ptr %5) #8
  call void @llvm.lifetime.start.p0(i64 8, ptr %6) #8
  store ptr %5, ptr %6, align 8, !tbaa !22
  call void @llvm.lifetime.start.p0(i64 8, ptr %7) #8
  %8 = load ptr, ptr %4, align 8, !tbaa !29
  store ptr %8, ptr %7, align 8, !tbaa !29
  %9 = load ptr, ptr %6, align 8, !tbaa !22
  %10 = getelementptr inbounds nuw %struct.TValue, ptr %9, i32 0, i32 0
  %11 = load ptr, ptr %7, align 8, !tbaa !29
  %12 = getelementptr inbounds nuw %struct.NodeKey, ptr %11, i32 0, i32 4
  call void @llvm.memcpy.p0.p0.i64(ptr align 8 %10, ptr align 8 %12, i64 8, i1 false), !tbaa.struct !26
  %13 = load ptr, ptr %7, align 8, !tbaa !29
  %14 = getelementptr inbounds nuw %struct.NodeKey, ptr %13, i32 0, i32 2
  %15 = load i8, ptr %14, align 1, !tbaa !21
  %16 = load ptr, ptr %6, align 8, !tbaa !22
  %17 = getelementptr inbounds nuw %struct.TValue, ptr %16, i32 0, i32 1
  store i8 %15, ptr %17, align 8, !tbaa !24
  call void @llvm.lifetime.end.p0(i64 8, ptr %7) #8
  call void @llvm.lifetime.end.p0(i64 8, ptr %6) #8
  %18 = load ptr, ptr %3, align 8, !tbaa !9
  %19 = call ptr @mainpositionTV(ptr noundef %18, ptr noundef %5)
  call void @llvm.lifetime.end.p0(i64 16, ptr %5) #8
  ret ptr %19
}

; Function Attrs: nounwind uwtable
define internal ptr @getfreepos(ptr noundef %0) #0 {
  %2 = alloca ptr, align 8
  %3 = alloca ptr, align 8
  %4 = alloca ptr, align 8
  %5 = alloca i32, align 4
  %6 = alloca i32, align 4
  %7 = alloca ptr, align 8
  store ptr %0, ptr %3, align 8, !tbaa !9
  %8 = load ptr, ptr %3, align 8, !tbaa !9
  %9 = getelementptr inbounds nuw %struct.Table, ptr %8, i32 0, i32 4
  %10 = load i8, ptr %9, align 1, !tbaa !27
  %11 = zext i8 %10 to i32
  %12 = icmp sge i32 %11, 3
  br i1 %12, label %13, label %43

13:                                               ; preds = %1
  br label %14

14:                                               ; preds = %41, %13
  %15 = load ptr, ptr %3, align 8, !tbaa !9
  %16 = getelementptr inbounds nuw %struct.Table, ptr %15, i32 0, i32 7
  %17 = load ptr, ptr %16, align 8, !tbaa !28
  %18 = getelementptr inbounds %union.Limbox, ptr %17, i64 -1
  %19 = load ptr, ptr %18, align 8, !tbaa !21
  %20 = load ptr, ptr %3, align 8, !tbaa !9
  %21 = getelementptr inbounds nuw %struct.Table, ptr %20, i32 0, i32 7
  %22 = load ptr, ptr %21, align 8, !tbaa !28
  %23 = icmp ugt ptr %19, %22
  br i1 %23, label %24, label %42

24:                                               ; preds = %14
  call void @llvm.lifetime.start.p0(i64 8, ptr %4) #8
  %25 = load ptr, ptr %3, align 8, !tbaa !9
  %26 = getelementptr inbounds nuw %struct.Table, ptr %25, i32 0, i32 7
  %27 = load ptr, ptr %26, align 8, !tbaa !28
  %28 = getelementptr inbounds %union.Limbox, ptr %27, i64 -1
  %29 = load ptr, ptr %28, align 8, !tbaa !21
  %30 = getelementptr inbounds %union.Node, ptr %29, i32 -1
  store ptr %30, ptr %28, align 8, !tbaa !21
  store ptr %30, ptr %4, align 8, !tbaa !29
  %31 = load ptr, ptr %4, align 8, !tbaa !29
  %32 = getelementptr inbounds nuw %struct.NodeKey, ptr %31, i32 0, i32 2
  %33 = load i8, ptr %32, align 1, !tbaa !21
  %34 = zext i8 %33 to i32
  %35 = icmp eq i32 %34, 0
  br i1 %35, label %36, label %38

36:                                               ; preds = %24
  %37 = load ptr, ptr %4, align 8, !tbaa !29
  store ptr %37, ptr %2, align 8
  store i32 1, ptr %5, align 4
  br label %39

38:                                               ; preds = %24
  store i32 0, ptr %5, align 4
  br label %39

39:                                               ; preds = %38, %36
  call void @llvm.lifetime.end.p0(i64 8, ptr %4) #8
  %40 = load i32, ptr %5, align 4
  switch i32 %40, label %78 [
    i32 0, label %41
    i32 1, label %76
  ]

41:                                               ; preds = %39
  br label %14

42:                                               ; preds = %14
  br label %75

43:                                               ; preds = %1
  call void @llvm.lifetime.start.p0(i64 4, ptr %6) #8
  %44 = load ptr, ptr %3, align 8, !tbaa !9
  %45 = getelementptr inbounds nuw %struct.Table, ptr %44, i32 0, i32 4
  %46 = load i8, ptr %45, align 1, !tbaa !27
  %47 = zext i8 %46 to i32
  %48 = shl i32 1, %47
  store i32 %48, ptr %6, align 4, !tbaa !19
  br label %49

49:                                               ; preds = %70, %43
  %50 = load i32, ptr %6, align 4, !tbaa !19
  %51 = add i32 %50, -1
  store i32 %51, ptr %6, align 4, !tbaa !19
  %52 = icmp ne i32 %50, 0
  br i1 %52, label %53, label %71

53:                                               ; preds = %49
  call void @llvm.lifetime.start.p0(i64 8, ptr %7) #8
  %54 = load ptr, ptr %3, align 8, !tbaa !9
  %55 = getelementptr inbounds nuw %struct.Table, ptr %54, i32 0, i32 7
  %56 = load ptr, ptr %55, align 8, !tbaa !28
  %57 = load i32, ptr %6, align 4, !tbaa !19
  %58 = zext i32 %57 to i64
  %59 = getelementptr inbounds nuw %union.Node, ptr %56, i64 %58
  store ptr %59, ptr %7, align 8, !tbaa !29
  %60 = load ptr, ptr %7, align 8, !tbaa !29
  %61 = getelementptr inbounds nuw %struct.NodeKey, ptr %60, i32 0, i32 2
  %62 = load i8, ptr %61, align 1, !tbaa !21
  %63 = zext i8 %62 to i32
  %64 = icmp eq i32 %63, 0
  br i1 %64, label %65, label %67

65:                                               ; preds = %53
  %66 = load ptr, ptr %7, align 8, !tbaa !29
  store ptr %66, ptr %2, align 8
  store i32 1, ptr %5, align 4
  br label %68

67:                                               ; preds = %53
  store i32 0, ptr %5, align 4
  br label %68

68:                                               ; preds = %67, %65
  call void @llvm.lifetime.end.p0(i64 8, ptr %7) #8
  %69 = load i32, ptr %5, align 4
  switch i32 %69, label %72 [
    i32 0, label %70
  ]

70:                                               ; preds = %68
  br label %49

71:                                               ; preds = %49
  store i32 0, ptr %5, align 4
  br label %72

72:                                               ; preds = %71, %68
  call void @llvm.lifetime.end.p0(i64 4, ptr %6) #8
  %73 = load i32, ptr %5, align 4
  switch i32 %73, label %78 [
    i32 0, label %74
    i32 1, label %76
  ]

74:                                               ; preds = %72
  br label %75

75:                                               ; preds = %74, %42
  store ptr null, ptr %2, align 8
  br label %76

76:                                               ; preds = %75, %72, %39
  %77 = load ptr, ptr %2, align 8
  ret ptr %77

78:                                               ; preds = %72, %39
  unreachable
}

; Function Attrs: nounwind uwtable
define internal i32 @insertkey(ptr noundef %0, ptr noundef %1, ptr noundef %2) #0 {
  %4 = alloca i32, align 4
  %5 = alloca ptr, align 8
  %6 = alloca ptr, align 8
  %7 = alloca ptr, align 8
  %8 = alloca ptr, align 8
  %9 = alloca ptr, align 8
  %10 = alloca ptr, align 8
  %11 = alloca i32, align 4
  %12 = alloca ptr, align 8
  %13 = alloca ptr, align 8
  %14 = alloca ptr, align 8
  %15 = alloca ptr, align 8
  store ptr %0, ptr %5, align 8, !tbaa !9
  store ptr %1, ptr %6, align 8, !tbaa !22
  store ptr %2, ptr %7, align 8, !tbaa !22
  call void @llvm.lifetime.start.p0(i64 8, ptr %8) #8
  %16 = load ptr, ptr %5, align 8, !tbaa !9
  %17 = load ptr, ptr %6, align 8, !tbaa !22
  %18 = call ptr @mainpositionTV(ptr noundef %16, ptr noundef %17)
  store ptr %18, ptr %8, align 8, !tbaa !29
  %19 = load ptr, ptr %8, align 8, !tbaa !29
  %20 = getelementptr inbounds nuw %struct.TValue, ptr %19, i32 0, i32 1
  %21 = load i8, ptr %20, align 8, !tbaa !21
  %22 = zext i8 %21 to i32
  %23 = and i32 %22, 15
  %24 = icmp eq i32 %23, 0
  br i1 %24, label %25, label %32

25:                                               ; preds = %3
  %26 = load ptr, ptr %5, align 8, !tbaa !9
  %27 = getelementptr inbounds nuw %struct.Table, ptr %26, i32 0, i32 3
  %28 = load i8, ptr %27, align 2, !tbaa !30
  %29 = zext i8 %28 to i32
  %30 = and i32 %29, 64
  %31 = icmp ne i32 %30, 0
  br i1 %31, label %32, label %131

32:                                               ; preds = %25, %3
  call void @llvm.lifetime.start.p0(i64 8, ptr %9) #8
  call void @llvm.lifetime.start.p0(i64 8, ptr %10) #8
  %33 = load ptr, ptr %5, align 8, !tbaa !9
  %34 = call ptr @getfreepos(ptr noundef %33)
  store ptr %34, ptr %10, align 8, !tbaa !29
  %35 = load ptr, ptr %10, align 8, !tbaa !29
  %36 = icmp eq ptr %35, null
  br i1 %36, label %37, label %38

37:                                               ; preds = %32
  store i32 0, ptr %4, align 4
  store i32 1, ptr %11, align 4
  br label %128

38:                                               ; preds = %32
  %39 = load ptr, ptr %5, align 8, !tbaa !9
  %40 = load ptr, ptr %8, align 8, !tbaa !29
  %41 = call ptr @mainpositionfromnode(ptr noundef %39, ptr noundef %40)
  store ptr %41, ptr %9, align 8, !tbaa !29
  %42 = load ptr, ptr %9, align 8, !tbaa !29
  %43 = load ptr, ptr %8, align 8, !tbaa !29
  %44 = icmp ne ptr %42, %43
  br i1 %44, label %45, label %95

45:                                               ; preds = %38
  br label %46

46:                                               ; preds = %55, %45
  %47 = load ptr, ptr %9, align 8, !tbaa !29
  %48 = load ptr, ptr %9, align 8, !tbaa !29
  %49 = getelementptr inbounds nuw %struct.NodeKey, ptr %48, i32 0, i32 3
  %50 = load i32, ptr %49, align 4, !tbaa !21
  %51 = sext i32 %50 to i64
  %52 = getelementptr inbounds %union.Node, ptr %47, i64 %51
  %53 = load ptr, ptr %8, align 8, !tbaa !29
  %54 = icmp ne ptr %52, %53
  br i1 %54, label %55, label %62

55:                                               ; preds = %46
  %56 = load ptr, ptr %9, align 8, !tbaa !29
  %57 = getelementptr inbounds nuw %struct.NodeKey, ptr %56, i32 0, i32 3
  %58 = load i32, ptr %57, align 4, !tbaa !21
  %59 = load ptr, ptr %9, align 8, !tbaa !29
  %60 = sext i32 %58 to i64
  %61 = getelementptr inbounds %union.Node, ptr %59, i64 %60
  store ptr %61, ptr %9, align 8, !tbaa !29
  br label %46

62:                                               ; preds = %46
  %63 = load ptr, ptr %10, align 8, !tbaa !29
  %64 = load ptr, ptr %9, align 8, !tbaa !29
  %65 = ptrtoint ptr %63 to i64
  %66 = ptrtoint ptr %64 to i64
  %67 = sub i64 %65, %66
  %68 = sdiv exact i64 %67, 24
  %69 = trunc i64 %68 to i32
  %70 = load ptr, ptr %9, align 8, !tbaa !29
  %71 = getelementptr inbounds nuw %struct.NodeKey, ptr %70, i32 0, i32 3
  store i32 %69, ptr %71, align 4, !tbaa !21
  %72 = load ptr, ptr %10, align 8, !tbaa !29
  %73 = load ptr, ptr %8, align 8, !tbaa !29
  call void @llvm.memcpy.p0.p0.i64(ptr align 8 %72, ptr align 8 %73, i64 24, i1 false), !tbaa.struct !48
  %74 = load ptr, ptr %8, align 8, !tbaa !29
  %75 = getelementptr inbounds nuw %struct.NodeKey, ptr %74, i32 0, i32 3
  %76 = load i32, ptr %75, align 4, !tbaa !21
  %77 = icmp ne i32 %76, 0
  br i1 %77, label %78, label %92

78:                                               ; preds = %62
  %79 = load ptr, ptr %8, align 8, !tbaa !29
  %80 = load ptr, ptr %10, align 8, !tbaa !29
  %81 = ptrtoint ptr %79 to i64
  %82 = ptrtoint ptr %80 to i64
  %83 = sub i64 %81, %82
  %84 = sdiv exact i64 %83, 24
  %85 = trunc i64 %84 to i32
  %86 = load ptr, ptr %10, align 8, !tbaa !29
  %87 = getelementptr inbounds nuw %struct.NodeKey, ptr %86, i32 0, i32 3
  %88 = load i32, ptr %87, align 4, !tbaa !21
  %89 = add nsw i32 %88, %85
  store i32 %89, ptr %87, align 4, !tbaa !21
  %90 = load ptr, ptr %8, align 8, !tbaa !29
  %91 = getelementptr inbounds nuw %struct.NodeKey, ptr %90, i32 0, i32 3
  store i32 0, ptr %91, align 4, !tbaa !21
  br label %92

92:                                               ; preds = %78, %62
  %93 = load ptr, ptr %8, align 8, !tbaa !29
  %94 = getelementptr inbounds nuw %struct.TValue, ptr %93, i32 0, i32 1
  store i8 16, ptr %94, align 8, !tbaa !21
  br label %127

95:                                               ; preds = %38
  %96 = load ptr, ptr %8, align 8, !tbaa !29
  %97 = getelementptr inbounds nuw %struct.NodeKey, ptr %96, i32 0, i32 3
  %98 = load i32, ptr %97, align 4, !tbaa !21
  %99 = icmp ne i32 %98, 0
  br i1 %99, label %100, label %115

100:                                              ; preds = %95
  %101 = load ptr, ptr %8, align 8, !tbaa !29
  %102 = load ptr, ptr %8, align 8, !tbaa !29
  %103 = getelementptr inbounds nuw %struct.NodeKey, ptr %102, i32 0, i32 3
  %104 = load i32, ptr %103, align 4, !tbaa !21
  %105 = sext i32 %104 to i64
  %106 = getelementptr inbounds %union.Node, ptr %101, i64 %105
  %107 = load ptr, ptr %10, align 8, !tbaa !29
  %108 = ptrtoint ptr %106 to i64
  %109 = ptrtoint ptr %107 to i64
  %110 = sub i64 %108, %109
  %111 = sdiv exact i64 %110, 24
  %112 = trunc i64 %111 to i32
  %113 = load ptr, ptr %10, align 8, !tbaa !29
  %114 = getelementptr inbounds nuw %struct.NodeKey, ptr %113, i32 0, i32 3
  store i32 %112, ptr %114, align 4, !tbaa !21
  br label %116

115:                                              ; preds = %95
  br label %116

116:                                              ; preds = %115, %100
  %117 = load ptr, ptr %10, align 8, !tbaa !29
  %118 = load ptr, ptr %8, align 8, !tbaa !29
  %119 = ptrtoint ptr %117 to i64
  %120 = ptrtoint ptr %118 to i64
  %121 = sub i64 %119, %120
  %122 = sdiv exact i64 %121, 24
  %123 = trunc i64 %122 to i32
  %124 = load ptr, ptr %8, align 8, !tbaa !29
  %125 = getelementptr inbounds nuw %struct.NodeKey, ptr %124, i32 0, i32 3
  store i32 %123, ptr %125, align 4, !tbaa !21
  %126 = load ptr, ptr %10, align 8, !tbaa !29
  store ptr %126, ptr %8, align 8, !tbaa !29
  br label %127

127:                                              ; preds = %116, %92
  store i32 0, ptr %11, align 4
  br label %128

128:                                              ; preds = %127, %37
  call void @llvm.lifetime.end.p0(i64 8, ptr %10) #8
  call void @llvm.lifetime.end.p0(i64 8, ptr %9) #8
  %129 = load i32, ptr %11, align 4
  switch i32 %129, label %154 [
    i32 0, label %130
  ]

130:                                              ; preds = %128
  br label %131

131:                                              ; preds = %130, %25
  call void @llvm.lifetime.start.p0(i64 8, ptr %12) #8
  %132 = load ptr, ptr %8, align 8, !tbaa !29
  store ptr %132, ptr %12, align 8, !tbaa !29
  call void @llvm.lifetime.start.p0(i64 8, ptr %13) #8
  %133 = load ptr, ptr %6, align 8, !tbaa !22
  store ptr %133, ptr %13, align 8, !tbaa !22
  %134 = load ptr, ptr %12, align 8, !tbaa !29
  %135 = getelementptr inbounds nuw %struct.NodeKey, ptr %134, i32 0, i32 4
  %136 = load ptr, ptr %13, align 8, !tbaa !22
  %137 = getelementptr inbounds nuw %struct.TValue, ptr %136, i32 0, i32 0
  call void @llvm.memcpy.p0.p0.i64(ptr align 8 %135, ptr align 8 %137, i64 8, i1 false), !tbaa.struct !26
  %138 = load ptr, ptr %13, align 8, !tbaa !22
  %139 = getelementptr inbounds nuw %struct.TValue, ptr %138, i32 0, i32 1
  %140 = load i8, ptr %139, align 8, !tbaa !24
  %141 = load ptr, ptr %12, align 8, !tbaa !29
  %142 = getelementptr inbounds nuw %struct.NodeKey, ptr %141, i32 0, i32 2
  store i8 %140, ptr %142, align 1, !tbaa !21
  call void @llvm.lifetime.end.p0(i64 8, ptr %13) #8
  call void @llvm.lifetime.end.p0(i64 8, ptr %12) #8
  call void @llvm.lifetime.start.p0(i64 8, ptr %14) #8
  %143 = load ptr, ptr %8, align 8, !tbaa !29
  store ptr %143, ptr %14, align 8, !tbaa !22
  call void @llvm.lifetime.start.p0(i64 8, ptr %15) #8
  %144 = load ptr, ptr %7, align 8, !tbaa !22
  store ptr %144, ptr %15, align 8, !tbaa !22
  %145 = load ptr, ptr %14, align 8, !tbaa !22
  %146 = getelementptr inbounds nuw %struct.TValue, ptr %145, i32 0, i32 0
  %147 = load ptr, ptr %15, align 8, !tbaa !22
  %148 = getelementptr inbounds nuw %struct.TValue, ptr %147, i32 0, i32 0
  call void @llvm.memcpy.p0.p0.i64(ptr align 8 %146, ptr align 8 %148, i64 8, i1 false), !tbaa.struct !26
  %149 = load ptr, ptr %15, align 8, !tbaa !22
  %150 = getelementptr inbounds nuw %struct.TValue, ptr %149, i32 0, i32 1
  %151 = load i8, ptr %150, align 8, !tbaa !24
  %152 = load ptr, ptr %14, align 8, !tbaa !22
  %153 = getelementptr inbounds nuw %struct.TValue, ptr %152, i32 0, i32 1
  store i8 %151, ptr %153, align 8, !tbaa !24
  call void @llvm.lifetime.end.p0(i64 8, ptr %15) #8
  call void @llvm.lifetime.end.p0(i64 8, ptr %14) #8
  store i32 1, ptr %4, align 4
  store i32 1, ptr %11, align 4
  br label %154

154:                                              ; preds = %131, %128
  call void @llvm.lifetime.end.p0(i64 8, ptr %8) #8
  %155 = load i32, ptr %4, align 4
  ret i32 %155
}