; Function Attrs: nounwind uwtable
define internal fastcc range(i32 0, 2) i32 @insertkey(ptr noundef readonly captures(none) %0, ptr noundef readonly captures(none) %1, ptr noundef readonly captures(none) %2) unnamed_addr #0 {
  %4 = alloca %struct.TValue, align 8
  %5 = tail call fastcc ptr @mainpositionTV(ptr noundef %0, ptr noundef %1)
  %6 = getelementptr inbounds nuw i8, ptr %5, i64 8
  %7 = load i8, ptr %6, align 8, !tbaa !16
  %8 = and i8 %7, 15
  %9 = icmp eq i8 %8, 0
  br i1 %9, label %10, label %14

10:                                               ; preds = %3
  %11 = getelementptr inbounds nuw i8, ptr %0, i64 10
  %12 = load i8, ptr %11, align 2, !tbaa !21
  %13 = and i8 %12, 64
  %.not = icmp eq i8 %13, 0
  br i1 %.not, label %.thread, label %14

14:                                               ; preds = %10, %3
  %15 = getelementptr inbounds nuw i8, ptr %0, i64 11
  %16 = load i8, ptr %15, align 1, !tbaa !20
  %17 = icmp ugt i8 %16, 2
  br i1 %17, label %.preheader.i, label %28

.preheader.i:                                     ; preds = %14
  %18 = getelementptr inbounds nuw i8, ptr %0, i64 24
  br label %19

19:                                               ; preds = %24, %.preheader.i
  %20 = load ptr, ptr %18, align 8, !tbaa !18
  %21 = getelementptr inbounds i8, ptr %20, i64 -8
  %22 = load ptr, ptr %21, align 8, !tbaa !16
  %23 = icmp ugt ptr %22, %20
  br i1 %23, label %24, label %.loopexit

24:                                               ; preds = %19
  %25 = getelementptr inbounds i8, ptr %22, i64 -24
  store ptr %25, ptr %21, align 8, !tbaa !16
  %26 = getelementptr inbounds i8, ptr %22, i64 -15
  %27 = load i8, ptr %26, align 1, !tbaa !16
  %.not.i = icmp eq i8 %27, 0
  br i1 %.not.i, label %getfreepos.exit.loopexit, label %19

28:                                               ; preds = %14
  %29 = zext nneg i8 %16 to i32
  %30 = shl nuw nsw i32 1, %29
  %31 = getelementptr inbounds nuw i8, ptr %0, i64 24
  %32 = zext nneg i32 %30 to i64
  %33 = load ptr, ptr %31, align 8, !tbaa !18
  br label %34

34:                                               ; preds = %35, %28
  %indvars.iv.i = phi i64 [ %36, %35 ], [ %32, %28 ]
  %.not.not.i = icmp eq i64 %indvars.iv.i, 0
  br i1 %.not.not.i, label %.loopexit, label %35

35:                                               ; preds = %34
  %36 = add nsw i64 %indvars.iv.i, -1
  %37 = getelementptr inbounds nuw %union.Node, ptr %33, i64 %36
  %38 = getelementptr inbounds nuw i8, ptr %37, i64 9
  %39 = load i8, ptr %38, align 1, !tbaa !16
  %.not21.i = icmp eq i8 %39, 0
  br i1 %.not21.i, label %getfreepos.exit, label %34

getfreepos.exit.loopexit:                         ; preds = %24
  %40 = getelementptr inbounds i8, ptr %22, i64 -24
  br label %getfreepos.exit

getfreepos.exit:                                  ; preds = %35, %getfreepos.exit.loopexit
  %.2.i = phi ptr [ %40, %getfreepos.exit.loopexit ], [ %37, %35 ]
  %41 = getelementptr i8, ptr %5, i64 9
  %.val = load i8, ptr %41, align 1, !tbaa !16
  %42 = getelementptr i8, ptr %5, i64 16
  %.val62 = load i64, ptr %42, align 8, !tbaa !16
  call void @llvm.lifetime.start.p0(i64 16, ptr nonnull %4) #13
  store i64 %.val62, ptr %4, align 8, !tbaa !16
  %43 = getelementptr inbounds nuw i8, ptr %4, i64 8
  store i8 %.val, ptr %43, align 8, !tbaa !14
  %44 = call fastcc ptr @mainpositionTV(ptr noundef nonnull readonly %0, ptr noundef nonnull %4)
  call void @llvm.lifetime.end.p0(i64 16, ptr nonnull %4) #13
  %.not57 = icmp eq ptr %44, %5
  br i1 %.not57, label %67, label %.preheader

.preheader:                                       ; preds = %getfreepos.exit, %.preheader
  %.050 = phi ptr [ %48, %.preheader ], [ %44, %getfreepos.exit ]
  %45 = getelementptr inbounds nuw i8, ptr %.050, i64 12
  %46 = load i32, ptr %45, align 4, !tbaa !16
  %47 = sext i32 %46 to i64
  %48 = getelementptr inbounds %union.Node, ptr %.050, i64 %47
  %.not59 = icmp eq ptr %48, %5
  br i1 %.not59, label %49, label %.preheader

49:                                               ; preds = %.preheader
  %50 = getelementptr inbounds nuw i8, ptr %.050, i64 12
  %51 = ptrtoint ptr %.2.i to i64
  %52 = ptrtoint ptr %.050 to i64
  %53 = sub i64 %51, %52
  %54 = sdiv exact i64 %53, 24
  %55 = trunc i64 %54 to i32
  store i32 %55, ptr %50, align 4, !tbaa !16
  tail call void @llvm.memcpy.p0.p0.i64(ptr noundef nonnull align 8 dereferenceable(24) %.2.i, ptr noundef nonnull align 8 dereferenceable(24) %5, i64 24, i1 false), !tbaa.struct !34
  %56 = getelementptr inbounds nuw i8, ptr %5, i64 12
  %57 = load i32, ptr %56, align 4, !tbaa !16
  %.not60 = icmp eq i32 %57, 0
  br i1 %.not60, label %66, label %58

58:                                               ; preds = %49
  %59 = ptrtoint ptr %5 to i64
  %60 = sub i64 %59, %51
  %61 = sdiv exact i64 %60, 24
  %62 = trunc i64 %61 to i32
  %63 = getelementptr inbounds nuw i8, ptr %.2.i, i64 12
  %64 = load i32, ptr %63, align 4, !tbaa !16
  %65 = add nsw i32 %64, %62
  store i32 %65, ptr %63, align 4, !tbaa !16
  store i32 0, ptr %56, align 4, !tbaa !16
  br label %66

66:                                               ; preds = %58, %49
  store i8 16, ptr %6, align 8, !tbaa !16
  br label %.thread

67:                                               ; preds = %getfreepos.exit
  %68 = getelementptr inbounds nuw i8, ptr %5, i64 12
  %69 = load i32, ptr %68, align 4, !tbaa !16
  %.not58 = icmp eq i32 %69, 0
  br i1 %.not58, label %._crit_edge, label %70

._crit_edge:                                      ; preds = %67
  %.pre = ptrtoint ptr %.2.i to i64
  br label %79

70:                                               ; preds = %67
  %71 = sext i32 %69 to i64
  %72 = getelementptr inbounds %union.Node, ptr %5, i64 %71
  %73 = ptrtoint ptr %72 to i64
  %74 = ptrtoint ptr %.2.i to i64
  %75 = sub i64 %73, %74
  %76 = sdiv exact i64 %75, 24
  %77 = trunc i64 %76 to i32
  %78 = getelementptr inbounds nuw i8, ptr %.2.i, i64 12
  store i32 %77, ptr %78, align 4, !tbaa !16
  br label %79

79:                                               ; preds = %._crit_edge, %70
  %.pre-phi = phi i64 [ %.pre, %._crit_edge ], [ %74, %70 ]
  %80 = ptrtoint ptr %5 to i64
  %81 = sub i64 %.pre-phi, %80
  %82 = sdiv exact i64 %81, 24
  %83 = trunc i64 %82 to i32
  store i32 %83, ptr %68, align 4, !tbaa !16
  br label %.thread

.thread:                                          ; preds = %79, %66, %10
  %.048 = phi ptr [ %5, %10 ], [ %.2.i, %79 ], [ %5, %66 ]
  %84 = getelementptr inbounds nuw i8, ptr %.048, i64 16
  %85 = load i64, ptr %1, align 8, !tbaa !16
  store i64 %85, ptr %84, align 8, !tbaa !16
  %86 = getelementptr inbounds nuw i8, ptr %1, i64 8
  %87 = load i8, ptr %86, align 8, !tbaa !14
  %88 = getelementptr inbounds nuw i8, ptr %.048, i64 9
  store i8 %87, ptr %88, align 1, !tbaa !16
  %89 = load i64, ptr %2, align 8, !tbaa !16
  store i64 %89, ptr %.048, align 8, !tbaa !16
  %90 = getelementptr inbounds nuw i8, ptr %2, i64 8
  %91 = load i8, ptr %90, align 8, !tbaa !14
  %92 = getelementptr inbounds nuw i8, ptr %.048, i64 8
  store i8 %91, ptr %92, align 8, !tbaa !14
  br label %.loopexit

.loopexit:                                        ; preds = %34, %19, %.thread
  %.1 = phi i32 [ 1, %.thread ], [ 0, %19 ], [ 0, %34 ]
  ret i32 %.1
}